; Function Attrs: nounwind uwtable
define range(i32 -1, 1) i32 @H5O_obj_type(ptr nocapture noundef readonly %0, ptr nocapture noundef writeonly %1) local_unnamed_addr #1 {
  %3 = alloca i64, align 8
  store i64 -1, ptr %3, align 8
  %4 = getelementptr inbounds i8, ptr %0, i64 8
  %5 = load i64, ptr %4, align 8
  call void @H5AC_tag(i64 noundef %5, ptr noundef nonnull %3) #11
  %6 = call ptr @H5O_protect(ptr noundef %0, i32 noundef 128, i1 noundef zeroext false)
  %7 = icmp eq ptr %6, null
  br i1 %7, label %.thread, label %.preheader

.thread:                                          ; preds = %2
  %8 = load i64, ptr @H5E_OHDR_g, align 8
  %9 = load i64, ptr @H5E_CANTPROTECT_g, align 8
  %10 = call i32 (ptr, ptr, i32, i64, i64, ptr, ...) @H5E_printf_stack(ptr noundef nonnull @.str.4, ptr noundef nonnull @__func__.H5O_obj_type, i32 noundef 1580, i64 noundef %8, i64 noundef %9, ptr noundef nonnull @.str.41) #11
  br label %33

.preheader:                                       ; preds = %2, %19
  %.0.i.i = phi i64 [ %12, %19 ], [ 3, %2 ]
  %.not.i.i = icmp eq i64 %.0.i.i, 0
  br i1 %.not.i.i, label %20, label %11

11:                                               ; preds = %.preheader
  %12 = add nsw i64 %.0.i.i, -1
  %13 = getelementptr inbounds [3 x ptr], ptr @H5O_obj_class_g, i64 0, i64 %12
  %14 = load ptr, ptr %13, align 8
  %15 = getelementptr inbounds i8, ptr %14, i64 32
  %16 = load ptr, ptr %15, align 8
  %17 = call i32 %16(ptr noundef nonnull %6) #11
  %18 = icmp slt i32 %17, 0
  br i1 %18, label %20, label %19

19:                                               ; preds = %11
  %.not11.i.i = icmp eq i32 %17, 0
  br i1 %.not11.i.i, label %.preheader, label %H5O__obj_class_real.exit.i

20:                                               ; preds = %11, %.preheader
  %.sink.i.i = phi i32 [ 1689, %11 ], [ 1695, %.preheader ]
  %21 = load i64, ptr @H5E_OHDR_g, align 8
  %22 = load i64, ptr @H5E_CANTINIT_g, align 8
  %23 = call i32 (ptr, ptr, i32, i64, i64, ptr, ...) @H5E_printf_stack(ptr noundef nonnull @.str.4, ptr noundef nonnull @__func__.H5O__obj_class_real, i32 noundef %.sink.i.i, i64 noundef %21, i64 noundef %22, ptr noundef nonnull @.str.58) #11
  %24 = call i32 @H5E_clear_stack() #11
  br label %26

H5O__obj_class_real.exit.i:                       ; preds = %19
  %25 = load i32, ptr %14, align 8
  br label %26

26:                                               ; preds = %H5O__obj_class_real.exit.i, %20
  %storemerge.i = phi i32 [ %25, %H5O__obj_class_real.exit.i ], [ -1, %20 ]
  store i32 %storemerge.i, ptr %1, align 4
  %27 = call i32 @H5O_unprotect(ptr noundef %0, ptr noundef nonnull %6, i32 noundef 0)
  %28 = icmp slt i32 %27, 0
  br i1 %28, label %29, label %33

29:                                               ; preds = %26
  %30 = load i64, ptr @H5E_OHDR_g, align 8
  %31 = load i64, ptr @H5E_CANTUNPROTECT_g, align 8
  %32 = call i32 (ptr, ptr, i32, i64, i64, ptr, ...) @H5E_printf_stack(ptr noundef nonnull @.str.4, ptr noundef nonnull @__func__.H5O_obj_type, i32 noundef 1588, i64 noundef %30, i64 noundef %31, ptr noundef nonnull @.str.47) #11
  br label %33

33:                                               ; preds = %.thread, %29, %26
  %.1 = phi i32 [ -1, %29 ], [ 0, %26 ], [ -1, %.thread ]
  %34 = load i64, ptr %3, align 8
  call void @H5AC_tag(i64 noundef %34, ptr noundef null) #11
  ret i32 %.1
}